; Function Attrs: mustprogress nofree norecurse nosync nounwind willreturn memory(argmem: read) uwtable
define internal range(i32 0, 65536) i32 @fold_simplify_conv_int_num(ptr noundef readonly captures(none) %0) #6 {
  %2 = getelementptr inbounds nuw i8, ptr %0, i64 194
  %3 = load i16, ptr %2, align 2, !tbaa !28
  %4 = getelementptr inbounds nuw i8, ptr %0, i64 186
  %5 = load i16, ptr %4, align 2, !tbaa !28
  %6 = lshr i16 %5, 5
  %7 = xor i16 %6, %3
  %8 = and i16 %7, 31
  %9 = icmp eq i16 %8, 0
  br i1 %9, label %10, label %14

10:                                               ; preds = %1
  %11 = getelementptr inbounds nuw i8, ptr %0, i64 192
  %12 = load i16, ptr %11, align 8, !tbaa !28
  %13 = zext i16 %12 to i32
  br label %14

14:                                               ; preds = %1, %10
  %.0 = phi i32 [ %13, %10 ], [ 0, %1 ]
  ret i32 %.0
}